; ModuleID = '23/891.c'
source_filename = "23/891.c"
target datalayout = "e-m:e-p270:32:32-p271:32:32-p272:64:64-i64:64-f80:128-n8:16:32:64-S128"
target triple = "x86_64-pc-linux-gnu"

@.str = private unnamed_addr constant [3 x i8] c"%s\00", align 1
@.str.1 = private unnamed_addr constant [4 x i8] c" %s\00", align 1

; Function Attrs: noinline nounwind uwtable
define dso_local void @main() #0 {
  %1 = alloca [100 x i8*], align 16
  %2 = alloca i32, align 4
  %3 = alloca i32, align 4
  store i32 0, i32* %2, align 4
  br label %4

4:                                                ; preds = %12, %0
  %5 = load i32, i32* %2, align 4
  %6 = icmp slt i32 %5, 100
  br i1 %6, label %7, label %15

7:                                                ; preds = %4
  %8 = call noalias i8* @malloc(i64 100) #3
  %9 = load i32, i32* %2, align 4
  %10 = sext i32 %9 to i64
  %11 = getelementptr inbounds [100 x i8*], [100 x i8*]* %1, i64 0, i64 %10
  store i8* %8, i8** %11, align 8
  br label %12

12:                                               ; preds = %7
  %13 = load i32, i32* %2, align 4
  %14 = add nsw i32 %13, 1
  store i32 %14, i32* %2, align 4
  br label %4

15:                                               ; preds = %4
  store i32 0, i32* %2, align 4
  br label %16

16:                                               ; preds = %23, %15
  %17 = load i32, i32* %2, align 4
  %18 = sext i32 %17 to i64
  %19 = getelementptr inbounds [100 x i8*], [100 x i8*]* %1, i64 0, i64 %18
  %20 = load i8*, i8** %19, align 8
  %21 = call i32 (i8*, ...) @__isoc99_scanf(i8* getelementptr inbounds ([3 x i8], [3 x i8]* @.str, i64 0, i64 0), i8* %20)
  %22 = icmp ne i32 %21, -1
  br i1 %22, label %23, label %26

23:                                               ; preds = %16
  %24 = load i32, i32* %2, align 4
  %25 = add nsw i32 %24, 1
  store i32 %25, i32* %2, align 4
  br label %16

26:                                               ; preds = %16
  store i32 0, i32* %3, align 4
  %27 = load i32, i32* %2, align 4
  %28 = sub nsw i32 %27, 1
  %29 = sext i32 %28 to i64
  %30 = getelementptr inbounds [100 x i8*], [100 x i8*]* %1, i64 0, i64 %29
  %31 = load i8*, i8** %30, align 8
  %32 = call i32 (i8*, ...) @printf(i8* getelementptr inbounds ([3 x i8], [3 x i8]* @.str, i64 0, i64 0), i8* %31)
  %33 = load i32, i32* %2, align 4
  %34 = sub nsw i32 %33, 2
  store i32 %34, i32* %3, align 4
  br label %35

35:                                               ; preds = %44, %26
  %36 = load i32, i32* %3, align 4
  %37 = icmp sge i32 %36, 0
  br i1 %37, label %38, label %47

38:                                               ; preds = %35
  %39 = load i32, i32* %3, align 4
  %40 = sext i32 %39 to i64
  %41 = getelementptr inbounds [100 x i8*], [100 x i8*]* %1, i64 0, i64 %40
  %42 = load i8*, i8** %41, align 8
  %43 = call i32 (i8*, ...) @printf(i8* getelementptr inbounds ([4 x i8], [4 x i8]* @.str.1, i64 0, i64 0), i8* %42)
  br label %44

44:                                               ; preds = %38
  %45 = load i32, i32* %3, align 4
  %46 = add nsw i32 %45, -1
  store i32 %46, i32* %3, align 4
  br label %35

47:                                               ; preds = %35
  ret void
}

; Function Attrs: nounwind
declare dso_local noalias i8* @malloc(i64) #1

declare dso_local i32 @__isoc99_scanf(i8*, ...) #2

declare dso_local i32 @printf(i8*, ...) #2


!llvm.module.flags = !{!0}
!llvm.ident = !{!1}

!0 = !{i32 1, !"wchar_size", i32 4}
!1 = !{!"clang version 10.0.0-4ubuntu1 "}
